target datalayout = "e-m:e-p270:32:32-p271:32:32-p272:64:64-i64:64-i128:128-f80:128-n8:16:32:64-S128"
target triple = "x86_64-unknown-linux-gnu"

%struct.GeoHashBits = type { i64, i8 }

; Function Attrs: nounwind uwtable
define dso_local void @scoresOfGeoHashBox(i64 %hash.coerce0, i8 %hash.coerce1, ptr noundef %min, ptr noundef %max) #0 {
entry:
  %hash = alloca %struct.GeoHashBits, align 8
  %min.addr = alloca ptr, align 8
  %max.addr = alloca ptr, align 8
  %0 = getelementptr inbounds { i64, i8 }, ptr %hash, i32 0, i32 0
  store i64 %hash.coerce0, ptr %0, align 8
  %1 = getelementptr inbounds { i64, i8 }, ptr %hash, i32 0, i32 1
  store i8 %hash.coerce1, ptr %1, align 8
  store ptr %min, ptr %min.addr, align 8
  store ptr %max, ptr %max.addr, align 8
  %2 = getelementptr inbounds { i64, i8 }, ptr %hash, i32 0, i32 0
  %3 = load i64, ptr %2, align 8
  %4 = getelementptr inbounds { i64, i8 }, ptr %hash, i32 0, i32 1
  %5 = load i8, ptr %4, align 8
  %call = call i64 @geohashAlign52Bits(i64 %3, i8 %5)
  %6 = load ptr, ptr %min.addr, align 8
  store i64 %call, ptr %6, align 8
  %bits = getelementptr inbounds %struct.GeoHashBits, ptr %hash, i32 0, i32 0
  %7 = load i64, ptr %bits, align 8
  %inc = add i64 %7, 1
  store i64 %inc, ptr %bits, align 8
  %8 = getelementptr inbounds { i64, i8 }, ptr %hash, i32 0, i32 0
  %9 = load i64, ptr %8, align 8
  %10 = getelementptr inbounds { i64, i8 }, ptr %hash, i32 0, i32 1
  %11 = load i8, ptr %10, align 8
  %call1 = call i64 @geohashAlign52Bits(i64 %9, i8 %11)
  %12 = load ptr, ptr %max.addr, align 8
  store i64 %call1, ptr %12, align 8
  ret void
}