; Function Attrs: nounwind uwtable
define dso_local void @scoresOfGeoHashBox(i64 %hash.coerce0, i8 %hash.coerce1, ptr nocapture noundef writeonly %min, ptr nocapture noundef writeonly %max) local_unnamed_addr #0 {
entry:
  %call = tail call i64 @geohashAlign52Bits(i64 %hash.coerce0, i8 %hash.coerce1) #14
  store i64 %call, ptr %min, align 8
  %inc = add i64 %hash.coerce0, 1
  %call1 = tail call i64 @geohashAlign52Bits(i64 %inc, i8 %hash.coerce1) #14
  store i64 %call1, ptr %max, align 8
  ret void
}